target datalayout = "e-m:e-p270:32:32-p271:32:32-p272:64:64-i64:64-i128:128-f80:128-n8:16:32:64-S128"
target triple = "x86_64-pc-linux-gnu"

%struct.Abc_Frame_t_ = type { ptr, ptr, ptr, ptr, ptr, ptr, ptr, ptr, ptr, ptr, i32, i32, i32, i32, i32, ptr, float, float, i32, i32, ptr, ptr, ptr, double, double, ptr, ptr, ptr, ptr, ptr, ptr, ptr, ptr, ptr, ptr, ptr, ptr, float, ptr, i32, ptr, ptr, ptr, ptr, ptr, i32, i32, i32, i32, i32, i32, ptr, ptr, ptr, ptr, ptr, ptr, i32, i32, ptr, ptr, ptr, ptr, ptr, ptr, ptr, ptr, ptr, ptr, ptr, ptr, ptr, ptr, ptr, ptr, ptr, ptr, ptr, ptr, ptr, ptr, ptr, ptr, ptr, ptr, ptr, ptr, ptr, ptr }

@globalUtilOptind = external global i32, align 4
@.str.113 = private unnamed_addr constant [4 x i8] c"yes\00", align 1
@.str.114 = private unnamed_addr constant [3 x i8] c"no\00", align 1
@.str.115 = private unnamed_addr constant [61 x i8] c"\09-c     : toggle network check after reading [default = %s]\0A\00", align 1
@.str.118 = private unnamed_addr constant [38 x i8] c"\09-h     : prints the command summary\0A\00", align 1
@.str.119 = private unnamed_addr constant [38 x i8] c"\09file   : the name of a file to read\0A\00", align 1
@.str.129 = private unnamed_addr constant [6 x i8] c"nmach\00", align 1
@.str.130 = private unnamed_addr constant [34 x i8] c"usage: read_blif [-nmach] <file>\0A\00", align 1
@.str.131 = private unnamed_addr constant [51 x i8] c"\09         reads the network in binary BLIF format\0A\00", align 1
@.str.132 = private unnamed_addr constant [55 x i8] c"\09         (if this command does not work, try \22read\22)\0A\00", align 1
@.str.133 = private unnamed_addr constant [81 x i8] c"\09-n     : toggle using old BLIF parser without hierarchy support [default = %s]\0A\00", align 1
@.str.134 = private unnamed_addr constant [75 x i8] c"\09-m     : toggle saving original circuit names into a file [default = %s]\0A\00", align 1
@.str.135 = private unnamed_addr constant [69 x i8] c"\09-a     : toggle creating AIG while reading the file [default = %s]\0A\00", align 1

; Function Attrs: nounwind uwtable
define internal i32 @IoCommandReadBlif(ptr noundef %0, i32 noundef %1, ptr noundef %2) #0 {
  %4 = alloca i32, align 4
  %5 = alloca ptr, align 8
  %6 = alloca i32, align 4
  %7 = alloca ptr, align 8
  %8 = alloca ptr, align 8
  %9 = alloca ptr, align 8
  %10 = alloca i32, align 4
  %11 = alloca i32, align 4
  %12 = alloca i32, align 4
  %13 = alloca i32, align 4
  %14 = alloca i32, align 4
  %15 = alloca ptr, align 8
  %16 = alloca i32, align 4
  store ptr %0, ptr %5, align 8, !tbaa !3
  store i32 %1, ptr %6, align 4, !tbaa !8
  store ptr %2, ptr %7, align 8, !tbaa !10
  call void @llvm.lifetime.start.p0(i64 8, ptr %8) #11
  call void @llvm.lifetime.start.p0(i64 8, ptr %9) #11
  call void @llvm.lifetime.start.p0(i64 4, ptr %10) #11
  call void @llvm.lifetime.start.p0(i64 4, ptr %11) #11
  call void @llvm.lifetime.start.p0(i64 4, ptr %12) #11
  call void @llvm.lifetime.start.p0(i64 4, ptr %13) #11
  call void @llvm.lifetime.start.p0(i64 4, ptr %14) #11
  store i32 1, ptr %11, align 4, !tbaa !8
  store i32 0, ptr %10, align 4, !tbaa !8
  store i32 1, ptr %12, align 4, !tbaa !8
  store i32 0, ptr %13, align 4, !tbaa !8
  call void (...) @Extra_UtilGetoptReset()
  br label %17

17:                                               ; preds = %38, %3
  %18 = load i32, ptr %6, align 4, !tbaa !8
  %19 = load ptr, ptr %7, align 8, !tbaa !10
  %20 = call i32 @Extra_UtilGetopt(i32 noundef %18, ptr noundef %19, ptr noundef @.str.129)
  store i32 %20, ptr %14, align 4, !tbaa !8
  %21 = icmp ne i32 %20, -1
  br i1 %21, label %22, label %39

22:                                               ; preds = %17
  %23 = load i32, ptr %14, align 4, !tbaa !8
  switch i32 %23, label %37 [
    i32 110, label %24
    i32 109, label %27
    i32 97, label %30
    i32 99, label %33
    i32 104, label %36
  ]

24:                                               ; preds = %22
  %25 = load i32, ptr %12, align 4, !tbaa !8
  %26 = xor i32 %25, 1
  store i32 %26, ptr %12, align 4, !tbaa !8
  br label %38

27:                                               ; preds = %22
  %28 = load i32, ptr %13, align 4, !tbaa !8
  %29 = xor i32 %28, 1
  store i32 %29, ptr %13, align 4, !tbaa !8
  br label %38

30:                                               ; preds = %22
  %31 = load i32, ptr %10, align 4, !tbaa !8
  %32 = xor i32 %31, 1
  store i32 %32, ptr %10, align 4, !tbaa !8
  br label %38

33:                                               ; preds = %22
  %34 = load i32, ptr %11, align 4, !tbaa !8
  %35 = xor i32 %34, 1
  store i32 %35, ptr %11, align 4, !tbaa !8
  br label %38

36:                                               ; preds = %22
  br label %98

37:                                               ; preds = %22
  br label %98

38:                                               ; preds = %33, %30, %27, %24
  br label %17, !llvm.loop !39

39:                                               ; preds = %17
  %40 = load i32, ptr %6, align 4, !tbaa !8
  %41 = load i32, ptr @globalUtilOptind, align 4, !tbaa !8
  %42 = add nsw i32 %41, 1
  %43 = icmp ne i32 %40, %42
  br i1 %43, label %44, label %45

44:                                               ; preds = %39
  br label %98

45:                                               ; preds = %39
  %46 = load ptr, ptr %7, align 8, !tbaa !10
  %47 = load i32, ptr @globalUtilOptind, align 4, !tbaa !8
  %48 = sext i32 %47 to i64
  %49 = getelementptr inbounds ptr, ptr %46, i64 %48
  %50 = load ptr, ptr %49, align 8, !tbaa !14
  store ptr %50, ptr %9, align 8, !tbaa !14
  %51 = load i32, ptr %10, align 4, !tbaa !8
  %52 = icmp ne i32 %51, 0
  br i1 %52, label %53, label %57

53:                                               ; preds = %45
  %54 = load ptr, ptr %9, align 8, !tbaa !14
  %55 = load i32, ptr %11, align 4, !tbaa !8
  %56 = call ptr @Io_ReadBlifAsAig(ptr noundef %54, i32 noundef %55)
  store ptr %56, ptr %8, align 8, !tbaa !18
  br label %90

57:                                               ; preds = %45
  %58 = load i32, ptr %12, align 4, !tbaa !8
  %59 = icmp ne i32 %58, 0
  br i1 %59, label %60, label %64

60:                                               ; preds = %57
  %61 = load ptr, ptr %9, align 8, !tbaa !14
  %62 = load i32, ptr %11, align 4, !tbaa !8
  %63 = call ptr @Io_Read(ptr noundef %61, i32 noundef 4, i32 noundef %62, i32 noundef 0)
  store ptr %63, ptr %8, align 8, !tbaa !18
  br label %89

64:                                               ; preds = %57
  call void @llvm.lifetime.start.p0(i64 8, ptr %15) #11
  %65 = load ptr, ptr %9, align 8, !tbaa !14
  %66 = load i32, ptr %11, align 4, !tbaa !8
  %67 = call ptr @Io_ReadBlif(ptr noundef %65, i32 noundef %66)
  store ptr %67, ptr %8, align 8, !tbaa !18
  %68 = load ptr, ptr %8, align 8, !tbaa !18
  %69 = icmp eq ptr %68, null
  br i1 %69, label %70, label %71

70:                                               ; preds = %64
  store i32 1, ptr %4, align 4
  store i32 1, ptr %16, align 4
  br label %86

71:                                               ; preds = %64
  %72 = load i32, ptr %13, align 4, !tbaa !8
  %73 = icmp ne i32 %72, 0
  br i1 %73, label %74, label %76

74:                                               ; preds = %71
  %75 = load ptr, ptr %8, align 8, !tbaa !18
  call void @Abc_NtkStartNameIds(ptr noundef %75)
  br label %76

76:                                               ; preds = %74, %71
  %77 = load ptr, ptr %8, align 8, !tbaa !18
  store ptr %77, ptr %15, align 8, !tbaa !18
  %78 = call ptr @Abc_NtkToLogic(ptr noundef %77)
  store ptr %78, ptr %8, align 8, !tbaa !18
  %79 = load i32, ptr %13, align 4, !tbaa !8
  %80 = icmp ne i32 %79, 0
  br i1 %80, label %81, label %84

81:                                               ; preds = %76
  %82 = load ptr, ptr %15, align 8, !tbaa !18
  %83 = load ptr, ptr %8, align 8, !tbaa !18
  call void @Abc_NtkTransferNameIds(ptr noundef %82, ptr noundef %83)
  br label %84

84:                                               ; preds = %81, %76
  %85 = load ptr, ptr %15, align 8, !tbaa !18
  call void @Abc_NtkDelete(ptr noundef %85)
  store i32 0, ptr %16, align 4
  br label %86

86:                                               ; preds = %84, %70
  call void @llvm.lifetime.end.p0(i64 8, ptr %15) #11
  %87 = load i32, ptr %16, align 4
  switch i32 %87, label %148 [
    i32 0, label %88
  ]

88:                                               ; preds = %86
  br label %89

89:                                               ; preds = %88, %60
  br label %90

90:                                               ; preds = %89, %53
  %91 = load ptr, ptr %8, align 8, !tbaa !18
  %92 = icmp eq ptr %91, null
  br i1 %92, label %93, label %94

93:                                               ; preds = %90
  store i32 1, ptr %4, align 4
  store i32 1, ptr %16, align 4
  br label %148

94:                                               ; preds = %90
  %95 = load ptr, ptr %5, align 8, !tbaa !3
  %96 = load ptr, ptr %8, align 8, !tbaa !18
  call void @Abc_FrameReplaceCurrentNetwork(ptr noundef %95, ptr noundef %96)
  %97 = load ptr, ptr %5, align 8, !tbaa !3
  call void @Abc_FrameClearVerifStatus(ptr noundef %97)
  store i32 0, ptr %4, align 4
  store i32 1, ptr %16, align 4
  br label %148

98:                                               ; preds = %44, %37, %36
  %99 = load ptr, ptr %5, align 8, !tbaa !3
  %100 = getelementptr inbounds nuw %struct.Abc_Frame_t_, ptr %99, i32 0, i32 21
  %101 = load ptr, ptr %100, align 8, !tbaa !24
  %102 = call i32 (ptr, ptr, ...) @fprintf(ptr noundef %101, ptr noundef @.str.130) #11
  %103 = load ptr, ptr %5, align 8, !tbaa !3
  %104 = getelementptr inbounds nuw %struct.Abc_Frame_t_, ptr %103, i32 0, i32 21
  %105 = load ptr, ptr %104, align 8, !tbaa !24
  %106 = call i32 (ptr, ptr, ...) @fprintf(ptr noundef %105, ptr noundef @.str.131) #11
  %107 = load ptr, ptr %5, align 8, !tbaa !3
  %108 = getelementptr inbounds nuw %struct.Abc_Frame_t_, ptr %107, i32 0, i32 21
  %109 = load ptr, ptr %108, align 8, !tbaa !24
  %110 = call i32 (ptr, ptr, ...) @fprintf(ptr noundef %109, ptr noundef @.str.132) #11
  %111 = load ptr, ptr %5, align 8, !tbaa !3
  %112 = getelementptr inbounds nuw %struct.Abc_Frame_t_, ptr %111, i32 0, i32 21
  %113 = load ptr, ptr %112, align 8, !tbaa !24
  %114 = load i32, ptr %12, align 4, !tbaa !8
  %115 = icmp ne i32 %114, 0
  %116 = xor i1 %115, true
  %117 = select i1 %116, ptr @.str.113, ptr @.str.114
  %118 = call i32 (ptr, ptr, ...) @fprintf(ptr noundef %113, ptr noundef @.str.133, ptr noundef %117) #11
  %119 = load ptr, ptr %5, align 8, !tbaa !3
  %120 = getelementptr inbounds nuw %struct.Abc_Frame_t_, ptr %119, i32 0, i32 21
  %121 = load ptr, ptr %120, align 8, !tbaa !24
  %122 = load i32, ptr %13, align 4, !tbaa !8
  %123 = icmp ne i32 %122, 0
  %124 = select i1 %123, ptr @.str.113, ptr @.str.114
  %125 = call i32 (ptr, ptr, ...) @fprintf(ptr noundef %121, ptr noundef @.str.134, ptr noundef %124) #11
  %126 = load ptr, ptr %5, align 8, !tbaa !3
  %127 = getelementptr inbounds nuw %struct.Abc_Frame_t_, ptr %126, i32 0, i32 21
  %128 = load ptr, ptr %127, align 8, !tbaa !24
  %129 = load i32, ptr %10, align 4, !tbaa !8
  %130 = icmp ne i32 %129, 0
  %131 = select i1 %130, ptr @.str.113, ptr @.str.114
  %132 = call i32 (ptr, ptr, ...) @fprintf(ptr noundef %128, ptr noundef @.str.135, ptr noundef %131) #11
  %133 = load ptr, ptr %5, align 8, !tbaa !3
  %134 = getelementptr inbounds nuw %struct.Abc_Frame_t_, ptr %133, i32 0, i32 21
  %135 = load ptr, ptr %134, align 8, !tbaa !24
  %136 = load i32, ptr %11, align 4, !tbaa !8
  %137 = icmp ne i32 %136, 0
  %138 = select i1 %137, ptr @.str.113, ptr @.str.114
  %139 = call i32 (ptr, ptr, ...) @fprintf(ptr noundef %135, ptr noundef @.str.115, ptr noundef %138) #11
  %140 = load ptr, ptr %5, align 8, !tbaa !3
  %141 = getelementptr inbounds nuw %struct.Abc_Frame_t_, ptr %140, i32 0, i32 21
  %142 = load ptr, ptr %141, align 8, !tbaa !24
  %143 = call i32 (ptr, ptr, ...) @fprintf(ptr noundef %142, ptr noundef @.str.118) #11
  %144 = load ptr, ptr %5, align 8, !tbaa !3
  %145 = getelementptr inbounds nuw %struct.Abc_Frame_t_, ptr %144, i32 0, i32 21
  %146 = load ptr, ptr %145, align 8, !tbaa !24
  %147 = call i32 (ptr, ptr, ...) @fprintf(ptr noundef %146, ptr noundef @.str.119) #11
  store i32 1, ptr %4, align 4
  store i32 1, ptr %16, align 4
  br label %148

148:                                              ; preds = %98, %94, %93, %86
  call void @llvm.lifetime.end.p0(i64 4, ptr %14) #11
  call void @llvm.lifetime.end.p0(i64 4, ptr %13) #11
  call void @llvm.lifetime.end.p0(i64 4, ptr %12) #11
  call void @llvm.lifetime.end.p0(i64 4, ptr %11) #11
  call void @llvm.lifetime.end.p0(i64 4, ptr %10) #11
  call void @llvm.lifetime.end.p0(i64 8, ptr %9) #11
  call void @llvm.lifetime.end.p0(i64 8, ptr %8) #11
  %149 = load i32, ptr %4, align 4
  ret i32 %149
}