; Function Attrs: nounwind uwtable
define internal range(i32 0, 2) i32 @IoCommandReadBlif(ptr noundef %0, i32 noundef %1, ptr noundef %2) #0 {
  tail call void (...) @Extra_UtilGetoptReset() #18
  br label %.outer

.outer:                                           ; preds = %10, %3
  %.052.ph = phi i32 [ %11, %10 ], [ 0, %3 ]
  %.050.ph = phi i32 [ %.050.ph101, %10 ], [ 1, %3 ]
  %.048.ph = phi i32 [ %.048.ph105, %10 ], [ 1, %3 ]
  %.046.ph = phi i32 [ %.046, %10 ], [ 0, %3 ]
  br label %.outer100

.outer100:                                        ; preds = %.outer, %12
  %.050.ph101 = phi i32 [ %.050.ph, %.outer ], [ %13, %12 ]
  %.048.ph102 = phi i32 [ %.048.ph, %.outer ], [ %.048.ph105, %12 ]
  %.046.ph103 = phi i32 [ %.046.ph, %.outer ], [ %.046, %12 ]
  br label %.outer104

.outer104:                                        ; preds = %.outer100, %6
  %.048.ph105 = phi i32 [ %.048.ph102, %.outer100 ], [ %7, %6 ]
  %.046.ph106 = phi i32 [ %.046.ph103, %.outer100 ], [ %.046, %6 ]
  br label %4

4:                                                ; preds = %.outer104, %8
  %.046 = phi i32 [ %9, %8 ], [ %.046.ph106, %.outer104 ]
  %5 = tail call i32 @Extra_UtilGetopt(i32 noundef %1, ptr noundef %2, ptr noundef nonnull @.str.129) #18
  switch i32 %5, label %.loopexit [
    i32 -1, label %14
    i32 110, label %6
    i32 109, label %8
    i32 97, label %10
    i32 99, label %12
  ]

6:                                                ; preds = %4
  %7 = xor i32 %.048.ph105, 1
  br label %.outer104, !llvm.loop !44

8:                                                ; preds = %4
  %9 = xor i32 %.046, 1
  br label %4, !llvm.loop !44

10:                                               ; preds = %4
  %11 = xor i32 %.052.ph, 1
  br label %.outer, !llvm.loop !44

12:                                               ; preds = %4
  %13 = xor i32 %.050.ph101, 1
  br label %.outer100, !llvm.loop !44

14:                                               ; preds = %4
  %15 = load i32, ptr @globalUtilOptind, align 4, !tbaa !3
  %16 = add nsw i32 %15, 1
  %.not57 = icmp eq i32 %1, %16
  br i1 %.not57, label %17, label %.loopexit

17:                                               ; preds = %14
  %18 = sext i32 %15 to i64
  %19 = getelementptr inbounds ptr, ptr %2, i64 %18
  %20 = load ptr, ptr %19, align 8, !tbaa !9
  %.not58 = icmp eq i32 %.052.ph, 0
  br i1 %.not58, label %23, label %21

21:                                               ; preds = %17
  %22 = tail call ptr @Io_ReadBlifAsAig(ptr noundef %20, i32 noundef %.050.ph101) #18
  br label %34

23:                                               ; preds = %17
  %.not59 = icmp eq i32 %.048.ph105, 0
  br i1 %.not59, label %26, label %24

24:                                               ; preds = %23
  %25 = tail call ptr @Io_Read(ptr noundef %20, i32 noundef 4, i32 noundef %.050.ph101, i32 noundef 0) #18
  br label %34

26:                                               ; preds = %23
  %27 = tail call ptr @Io_ReadBlif(ptr noundef %20, i32 noundef %.050.ph101) #18
  %.not61 = icmp eq ptr %27, null
  br i1 %.not61, label %.thread66, label %28

28:                                               ; preds = %26
  %.not60 = icmp eq i32 %.046, 0
  br i1 %.not60, label %.thread, label %30

.thread:                                          ; preds = %28
  %29 = tail call ptr @Abc_NtkToLogic(ptr noundef nonnull %27) #18
  br label %32

30:                                               ; preds = %28
  tail call void @Abc_NtkStartNameIds(ptr noundef nonnull %27) #18
  %31 = tail call ptr @Abc_NtkToLogic(ptr noundef nonnull %27) #18
  tail call void @Abc_NtkTransferNameIds(ptr noundef nonnull %27, ptr noundef %31) #18
  br label %32

32:                                               ; preds = %30, %.thread
  %33 = phi ptr [ %29, %.thread ], [ %31, %30 ]
  tail call void @Abc_NtkDelete(ptr noundef nonnull %27) #18
  br label %34

34:                                               ; preds = %32, %24, %21
  %.044 = phi ptr [ %22, %21 ], [ %25, %24 ], [ %33, %32 ]
  %35 = icmp eq ptr %.044, null
  br i1 %35, label %.thread66, label %36

36:                                               ; preds = %34
  tail call void @Abc_FrameReplaceCurrentNetwork(ptr noundef %0, ptr noundef nonnull %.044) #18
  tail call void @Abc_FrameClearVerifStatus(ptr noundef %0) #18
  br label %.thread66

.loopexit:                                        ; preds = %4, %14
  %37 = getelementptr inbounds nuw i8, ptr %0, i64 136
  %38 = load ptr, ptr %37, align 8, !tbaa !34
  %39 = tail call i64 @fwrite(ptr nonnull @.str.130, i64 33, i64 1, ptr %38)
  %40 = load ptr, ptr %37, align 8, !tbaa !34
  %41 = tail call i64 @fwrite(ptr nonnull @.str.131, i64 50, i64 1, ptr %40)
  %42 = load ptr, ptr %37, align 8, !tbaa !34
  %43 = tail call i64 @fwrite(ptr nonnull @.str.132, i64 54, i64 1, ptr %42)
  %44 = load ptr, ptr %37, align 8, !tbaa !34
  %.not62 = icmp eq i32 %.048.ph105, 0
  %45 = select i1 %.not62, ptr @.str.113, ptr @.str.114
  %46 = tail call i32 (ptr, ptr, ...) @fprintf(ptr noundef %44, ptr noundef nonnull @.str.133, ptr noundef nonnull %45) #18
  %47 = load ptr, ptr %37, align 8, !tbaa !34
  %.not63 = icmp eq i32 %.046, 0
  %48 = select i1 %.not63, ptr @.str.114, ptr @.str.113
  %49 = tail call i32 (ptr, ptr, ...) @fprintf(ptr noundef %47, ptr noundef nonnull @.str.134, ptr noundef nonnull %48) #18
  %50 = load ptr, ptr %37, align 8, !tbaa !34
  %.not64 = icmp eq i32 %.052.ph, 0
  %51 = select i1 %.not64, ptr @.str.114, ptr @.str.113
  %52 = tail call i32 (ptr, ptr, ...) @fprintf(ptr noundef %50, ptr noundef nonnull @.str.135, ptr noundef nonnull %51) #18
  %53 = load ptr, ptr %37, align 8, !tbaa !34
  %.not65 = icmp eq i32 %.050.ph101, 0
  %54 = select i1 %.not65, ptr @.str.114, ptr @.str.113
  %55 = tail call i32 (ptr, ptr, ...) @fprintf(ptr noundef %53, ptr noundef nonnull @.str.115, ptr noundef nonnull %54) #18
  %56 = load ptr, ptr %37, align 8, !tbaa !34
  %57 = tail call i64 @fwrite(ptr nonnull @.str.118, i64 37, i64 1, ptr %56)
  %58 = load ptr, ptr %37, align 8, !tbaa !34
  %59 = tail call i64 @fwrite(ptr nonnull @.str.119, i64 37, i64 1, ptr %58)
  br label %.thread66

.thread66:                                        ; preds = %26, %34, %.loopexit, %36
  %.1 = phi i32 [ 1, %.loopexit ], [ 0, %36 ], [ 1, %34 ], [ 1, %26 ]
  ret i32 %.1
}